; ModuleID = '10/1269.c'
source_filename = "10/1269.c"
target datalayout = "e-m:e-p270:32:32-p271:32:32-p272:64:64-i64:64-f80:128-n8:16:32:64-S128"
target triple = "x86_64-pc-linux-gnu"

@.str = private unnamed_addr constant [3 x i8] c"%d\00", align 1

; Function Attrs: noinline nounwind uwtable
define dso_local i32 @main() #0 {
  %1 = alloca i32, align 4
  %2 = alloca [25 x i32], align 16
  %3 = alloca [25 x i32], align 16
  %4 = alloca [25 x i32], align 16
  %5 = alloca i32, align 4
  %6 = alloca i32, align 4
  %7 = alloca i32, align 4
  %8 = alloca i32, align 4
  %9 = alloca i32, align 4
  store i32 0, i32* %1, align 4
  store i32 0, i32* %8, align 4
  %10 = call i32 (i8*, ...) @__isoc99_scanf(i8* getelementptr inbounds ([3 x i8], [3 x i8]* @.str, i64 0, i64 0), i32* %7)
  store i32 0, i32* %5, align 4
  br label %11

11:                                               ; preds = %22, %0
  %12 = load i32, i32* %5, align 4
  %13 = load i32, i32* %7, align 4
  %14 = icmp slt i32 %12, %13
  br i1 %14, label %15, label %25

15:                                               ; preds = %11
  %16 = load i32, i32* %5, align 4
  %17 = sext i32 %16 to i64
  %18 = getelementptr inbounds [25 x i32], [25 x i32]* %2, i64 0, i64 %17
  store i32 0, i32* %18, align 4
  %19 = load i32, i32* %5, align 4
  %20 = sext i32 %19 to i64
  %21 = getelementptr inbounds [25 x i32], [25 x i32]* %3, i64 0, i64 %20
  store i32 0, i32* %21, align 4
  br label %22

22:                                               ; preds = %15
  %23 = load i32, i32* %5, align 4
  %24 = add nsw i32 %23, 1
  store i32 %24, i32* %5, align 4
  br label %11

25:                                               ; preds = %11
  store i32 0, i32* %5, align 4
  br label %26

26:                                               ; preds = %35, %25
  %27 = load i32, i32* %5, align 4
  %28 = load i32, i32* %7, align 4
  %29 = icmp slt i32 %27, %28
  br i1 %29, label %30, label %38

30:                                               ; preds = %26
  %31 = load i32, i32* %5, align 4
  %32 = sext i32 %31 to i64
  %33 = getelementptr inbounds [25 x i32], [25 x i32]* %2, i64 0, i64 %32
  %34 = call i32 (i8*, ...) @__isoc99_scanf(i8* getelementptr inbounds ([3 x i8], [3 x i8]* @.str, i64 0, i64 0), i32* %33)
  br label %35

35:                                               ; preds = %30
  %36 = load i32, i32* %5, align 4
  %37 = add nsw i32 %36, 1
  store i32 %37, i32* %5, align 4
  br label %26

38:                                               ; preds = %26
  %39 = load i32, i32* %7, align 4
  %40 = sub nsw i32 %39, 1
  store i32 %40, i32* %5, align 4
  br label %41

41:                                               ; preds = %111, %38
  %42 = load i32, i32* %5, align 4
  %43 = icmp sge i32 %42, 0
  br i1 %43, label %44, label %114

44:                                               ; preds = %41
  %45 = load i32, i32* %5, align 4
  store i32 %45, i32* %6, align 4
  br label %46

46:                                               ; preds = %78, %44
  %47 = load i32, i32* %6, align 4
  %48 = load i32, i32* %7, align 4
  %49 = icmp slt i32 %47, %48
  br i1 %49, label %50, label %81

50:                                               ; preds = %46
  %51 = load i32, i32* %5, align 4
  %52 = sext i32 %51 to i64
  %53 = getelementptr inbounds [25 x i32], [25 x i32]* %2, i64 0, i64 %52
  %54 = load i32, i32* %53, align 4
  %55 = load i32, i32* %6, align 4
  %56 = sext i32 %55 to i64
  %57 = getelementptr inbounds [25 x i32], [25 x i32]* %2, i64 0, i64 %56
  %58 = load i32, i32* %57, align 4
  %59 = icmp sge i32 %54, %58
  br i1 %59, label %60, label %71

60:                                               ; preds = %50
  %61 = load i32, i32* %6, align 4
  %62 = sext i32 %61 to i64
  %63 = getelementptr inbounds [25 x i32], [25 x i32]* %3, i64 0, i64 %62
  %64 = load i32, i32* %63, align 4
  %65 = add nsw i32 %64, 1
  %66 = load i32, i32* %6, align 4
  %67 = load i32, i32* %5, align 4
  %68 = sub nsw i32 %66, %67
  %69 = sext i32 %68 to i64
  %70 = getelementptr inbounds [25 x i32], [25 x i32]* %4, i64 0, i64 %69
  store i32 %65, i32* %70, align 4
  br label %77

71:                                               ; preds = %50
  %72 = load i32, i32* %6, align 4
  %73 = load i32, i32* %5, align 4
  %74 = sub nsw i32 %72, %73
  %75 = sext i32 %74 to i64
  %76 = getelementptr inbounds [25 x i32], [25 x i32]* %4, i64 0, i64 %75
  store i32 1, i32* %76, align 4
  br label %77

77:                                               ; preds = %71, %60
  br label %78

78:                                               ; preds = %77
  %79 = load i32, i32* %6, align 4
  %80 = add nsw i32 %79, 1
  store i32 %80, i32* %6, align 4
  br label %46

81:                                               ; preds = %46
  store i32 0, i32* %6, align 4
  br label %82

82:                                               ; preds = %107, %81
  %83 = load i32, i32* %6, align 4
  %84 = load i32, i32* %7, align 4
  %85 = load i32, i32* %5, align 4
  %86 = sub nsw i32 %84, %85
  %87 = icmp slt i32 %83, %86
  br i1 %87, label %88, label %110

88:                                               ; preds = %82
  %89 = load i32, i32* %6, align 4
  %90 = sext i32 %89 to i64
  %91 = getelementptr inbounds [25 x i32], [25 x i32]* %4, i64 0, i64 %90
  %92 = load i32, i32* %91, align 4
  %93 = load i32, i32* %5, align 4
  %94 = sext i32 %93 to i64
  %95 = getelementptr inbounds [25 x i32], [25 x i32]* %3, i64 0, i64 %94
  %96 = load i32, i32* %95, align 4
  %97 = icmp sge i32 %92, %96
  br i1 %97, label %98, label %106

98:                                               ; preds = %88
  %99 = load i32, i32* %6, align 4
  %100 = sext i32 %99 to i64
  %101 = getelementptr inbounds [25 x i32], [25 x i32]* %4, i64 0, i64 %100
  %102 = load i32, i32* %101, align 4
  %103 = load i32, i32* %5, align 4
  %104 = sext i32 %103 to i64
  %105 = getelementptr inbounds [25 x i32], [25 x i32]* %3, i64 0, i64 %104
  store i32 %102, i32* %105, align 4
  br label %106

106:                                              ; preds = %98, %88
  br label %107

107:                                              ; preds = %106
  %108 = load i32, i32* %6, align 4
  %109 = add nsw i32 %108, 1
  store i32 %109, i32* %6, align 4
  br label %82

110:                                              ; preds = %82
  br label %111

111:                                              ; preds = %110
  %112 = load i32, i32* %5, align 4
  %113 = add nsw i32 %112, -1
  store i32 %113, i32* %5, align 4
  br label %41

114:                                              ; preds = %41
  store i32 0, i32* %5, align 4
  br label %115

115:                                              ; preds = %132, %114
  %116 = load i32, i32* %5, align 4
  %117 = load i32, i32* %7, align 4
  %118 = icmp slt i32 %116, %117
  br i1 %118, label %119, label %135

119:                                              ; preds = %115
  %120 = load i32, i32* %5, align 4
  %121 = sext i32 %120 to i64
  %122 = getelementptr inbounds [25 x i32], [25 x i32]* %3, i64 0, i64 %121
  %123 = load i32, i32* %122, align 4
  %124 = load i32, i32* %8, align 4
  %125 = icmp sge i32 %123, %124
  br i1 %125, label %126, label %131

126:                                              ; preds = %119
  %127 = load i32, i32* %5, align 4
  %128 = sext i32 %127 to i64
  %129 = getelementptr inbounds [25 x i32], [25 x i32]* %3, i64 0, i64 %128
  %130 = load i32, i32* %129, align 4
  store i32 %130, i32* %8, align 4
  br label %131

131:                                              ; preds = %126, %119
  br label %132

132:                                              ; preds = %131
  %133 = load i32, i32* %5, align 4
  %134 = add nsw i32 %133, 1
  store i32 %134, i32* %5, align 4
  br label %115

135:                                              ; preds = %115
  %136 = load i32, i32* %8, align 4
  %137 = call i32 (i8*, ...) @printf(i8* getelementptr inbounds ([3 x i8], [3 x i8]* @.str, i64 0, i64 0), i32 %136)
  %138 = load i32, i32* %1, align 4
  ret i32 %138
}

declare dso_local i32 @__isoc99_scanf(i8*, ...) #1

declare dso_local i32 @printf(i8*, ...) #1


!llvm.module.flags = !{!0}
!llvm.ident = !{!1}

!0 = !{i32 1, !"wchar_size", i32 4}
!1 = !{!"clang version 10.0.0-4ubuntu1 "}
